target datalayout = "e-m:e-p270:32:32-p271:32:32-p272:64:64-i64:64-i128:128-f80:128-n8:16:32:64-S128"
target triple = "x86_64-pc-linux-gnu"

%struct._xmlNode = type { ptr, i32, ptr, ptr, ptr, ptr, ptr, ptr, ptr, ptr, ptr, ptr, ptr, ptr, i16, i16 }
%struct._xmlNs = type { ptr, i32, ptr, ptr, ptr, ptr }
%struct._xmlAttr = type { ptr, i32, ptr, ptr, ptr, ptr, ptr, ptr, ptr, ptr, i32, ptr }

@xmlFree = external global ptr, align 8

; Function Attrs: nounwind uwtable
define internal zeroext i1 @php_dom_node_is_content_equal(ptr noundef %0, ptr noundef %1) #0 {
  %3 = alloca ptr, align 8
  %4 = alloca ptr, align 8
  %5 = alloca ptr, align 8
  %6 = alloca ptr, align 8
  %7 = alloca i8, align 1
  store ptr %0, ptr %3, align 8
  store ptr %1, ptr %4, align 8
  %8 = load ptr, ptr %3, align 8
  %9 = call ptr @xmlNodeGetContent(ptr noundef %8)
  store ptr %9, ptr %5, align 8
  %10 = load ptr, ptr %4, align 8
  %11 = call ptr @xmlNodeGetContent(ptr noundef %10)
  store ptr %11, ptr %6, align 8
  %12 = load ptr, ptr %5, align 8
  %13 = load ptr, ptr %6, align 8
  %14 = call i32 @xmlStrEqual(ptr noundef %12, ptr noundef %13)
  %15 = icmp ne i32 %14, 0
  %16 = zext i1 %15 to i8
  store i8 %16, ptr %7, align 1
  %17 = load ptr, ptr @xmlFree, align 8
  %18 = load ptr, ptr %5, align 8
  call void %17(ptr noundef %18)
  %19 = load ptr, ptr @xmlFree, align 8
  %20 = load ptr, ptr %6, align 8
  call void %19(ptr noundef %20)
  %21 = load i8, ptr %7, align 1
  %22 = trunc i8 %21 to i1
  ret i1 %22
}

; Function Attrs: nounwind uwtable
define internal zeroext i1 @php_dom_node_is_ns_uri_equal(ptr noundef %0, ptr noundef %1) #0 {
  %3 = alloca ptr, align 8
  %4 = alloca ptr, align 8
  %5 = alloca ptr, align 8
  %6 = alloca ptr, align 8
  store ptr %0, ptr %3, align 8
  store ptr %1, ptr %4, align 8
  %7 = load ptr, ptr %3, align 8
  %8 = getelementptr inbounds %struct._xmlNode, ptr %7, i32 0, i32 9
  %9 = load ptr, ptr %8, align 8
  %10 = icmp ne ptr %9, null
  br i1 %10, label %11, label %17

11:                                               ; preds = %2
  %12 = load ptr, ptr %3, align 8
  %13 = getelementptr inbounds %struct._xmlNode, ptr %12, i32 0, i32 9
  %14 = load ptr, ptr %13, align 8
  %15 = getelementptr inbounds %struct._xmlNs, ptr %14, i32 0, i32 2
  %16 = load ptr, ptr %15, align 8
  br label %18

17:                                               ; preds = %2
  br label %18

18:                                               ; preds = %17, %11
  %19 = phi ptr [ %16, %11 ], [ null, %17 ]
  store ptr %19, ptr %5, align 8
  %20 = load ptr, ptr %4, align 8
  %21 = getelementptr inbounds %struct._xmlNode, ptr %20, i32 0, i32 9
  %22 = load ptr, ptr %21, align 8
  %23 = icmp ne ptr %22, null
  br i1 %23, label %24, label %30

24:                                               ; preds = %18
  %25 = load ptr, ptr %4, align 8
  %26 = getelementptr inbounds %struct._xmlNode, ptr %25, i32 0, i32 9
  %27 = load ptr, ptr %26, align 8
  %28 = getelementptr inbounds %struct._xmlNs, ptr %27, i32 0, i32 2
  %29 = load ptr, ptr %28, align 8
  br label %31

30:                                               ; preds = %18
  br label %31

31:                                               ; preds = %30, %24
  %32 = phi ptr [ %29, %24 ], [ null, %30 ]
  store ptr %32, ptr %6, align 8
  %33 = load ptr, ptr %5, align 8
  %34 = load ptr, ptr %6, align 8
  %35 = call i32 @xmlStrEqual(ptr noundef %33, ptr noundef %34)
  %36 = icmp ne i32 %35, 0
  ret i1 %36
}

; Function Attrs: nounwind uwtable
define internal zeroext i1 @php_dom_is_equal_attr(ptr noundef %0, ptr noundef %1) #0 {
  %3 = alloca ptr, align 8
  %4 = alloca ptr, align 8
  store ptr %0, ptr %3, align 8
  store ptr %1, ptr %4, align 8
  %5 = load ptr, ptr %3, align 8
  %6 = icmp ne ptr %5, null
  call void @llvm.assume(i1 %6)
  %7 = load ptr, ptr %4, align 8
  %8 = icmp ne ptr %7, null
  call void @llvm.assume(i1 %8)
  %9 = load ptr, ptr %3, align 8
  %10 = getelementptr inbounds %struct._xmlAttr, ptr %9, i32 0, i32 2
  %11 = load ptr, ptr %10, align 8
  %12 = load ptr, ptr %4, align 8
  %13 = getelementptr inbounds %struct._xmlAttr, ptr %12, i32 0, i32 2
  %14 = load ptr, ptr %13, align 8
  %15 = call i32 @xmlStrEqual(ptr noundef %11, ptr noundef %14)
  %16 = icmp ne i32 %15, 0
  br i1 %16, label %17, label %25

17:                                               ; preds = %2
  %18 = load ptr, ptr %3, align 8
  %19 = load ptr, ptr %4, align 8
  %20 = call zeroext i1 @php_dom_node_is_ns_uri_equal(ptr noundef %18, ptr noundef %19)
  br i1 %20, label %21, label %25

21:                                               ; preds = %17
  %22 = load ptr, ptr %3, align 8
  %23 = load ptr, ptr %4, align 8
  %24 = call zeroext i1 @php_dom_node_is_content_equal(ptr noundef %22, ptr noundef %23)
  br label %25

25:                                               ; preds = %21, %17, %2
  %26 = phi i1 [ false, %17 ], [ false, %2 ], [ %24, %21 ]
  ret i1 %26
}