; Function Attrs: nounwind uwtable
define internal fastcc zeroext i1 @php_dom_is_equal_attr(ptr noundef %0, ptr noundef %1) unnamed_addr #0 {
  %3 = icmp ne ptr %1, null
  tail call void @llvm.assume(i1 %3)
  %4 = getelementptr inbounds i8, ptr %0, i64 16
  %5 = load ptr, ptr %4, align 8
  %6 = getelementptr inbounds i8, ptr %1, i64 16
  %7 = load ptr, ptr %6, align 8
  %8 = tail call i32 @xmlStrEqual(ptr noundef %5, ptr noundef %7) #12
  %.not = icmp eq i32 %8, 0
  br i1 %.not, label %30, label %9

9:                                                ; preds = %2
  %10 = getelementptr i8, ptr %0, i64 72
  %.val = load ptr, ptr %10, align 8
  %.not.i = icmp eq ptr %.val, null
  br i1 %.not.i, label %14, label %11

11:                                               ; preds = %9
  %12 = getelementptr inbounds i8, ptr %.val, i64 16
  %13 = load ptr, ptr %12, align 8
  br label %14

14:                                               ; preds = %11, %9
  %15 = phi ptr [ %13, %11 ], [ null, %9 ]
  %16 = getelementptr inbounds i8, ptr %1, i64 72
  %17 = load ptr, ptr %16, align 8
  %.not7.i = icmp eq ptr %17, null
  br i1 %.not7.i, label %php_dom_node_is_ns_uri_equal.exit, label %18

18:                                               ; preds = %14
  %19 = getelementptr inbounds i8, ptr %17, i64 16
  %20 = load ptr, ptr %19, align 8
  br label %php_dom_node_is_ns_uri_equal.exit

php_dom_node_is_ns_uri_equal.exit:                ; preds = %14, %18
  %21 = phi ptr [ %20, %18 ], [ null, %14 ]
  %22 = tail call i32 @xmlStrEqual(ptr noundef %15, ptr noundef %21) #12
  %.not8 = icmp eq i32 %22, 0
  br i1 %.not8, label %30, label %23

23:                                               ; preds = %php_dom_node_is_ns_uri_equal.exit
  %24 = tail call ptr @xmlNodeGetContent(ptr noundef nonnull %0) #12
  %25 = tail call ptr @xmlNodeGetContent(ptr noundef nonnull %1) #12
  %26 = tail call i32 @xmlStrEqual(ptr noundef %24, ptr noundef %25) #12
  %27 = icmp ne i32 %26, 0
  %28 = load ptr, ptr @xmlFree, align 8
  tail call void %28(ptr noundef %24) #12
  %29 = load ptr, ptr @xmlFree, align 8
  tail call void %29(ptr noundef %25) #12
  br label %30

30:                                               ; preds = %23, %php_dom_node_is_ns_uri_equal.exit, %2
  %31 = phi i1 [ false, %php_dom_node_is_ns_uri_equal.exit ], [ false, %2 ], [ %27, %23 ]
  ret i1 %31
}